target datalayout = "e-m:e-p270:32:32-p271:32:32-p272:64:64-i64:64-i128:128-f80:128-n8:16:32:64-S128"
target triple = "x86_64-pc-linux-gnu"

%struct.ParallelSlotArray = type { i32, ptr, ptr, i8, ptr, [0 x %struct.ParallelSlot] }
%struct.ParallelSlot = type { ptr, i8, ptr, ptr }

; Function Attrs: nounwind uwtable
define dso_local ptr @ParallelSlotsSetup(i32 noundef %0, ptr noundef %1, ptr noundef %2, i1 noundef zeroext %3, ptr noundef %4) #0 {
  %6 = alloca i32, align 4
  %7 = alloca ptr, align 8
  %8 = alloca ptr, align 8
  %9 = alloca i8, align 1
  %10 = alloca ptr, align 8
  %11 = alloca ptr, align 8
  store i32 %0, ptr %6, align 4
  store ptr %1, ptr %7, align 8
  store ptr %2, ptr %8, align 8
  %12 = zext i1 %3 to i8
  store i8 %12, ptr %9, align 1
  store ptr %4, ptr %10, align 8
  call void @llvm.lifetime.start.p0(i64 8, ptr %11) #8
  %13 = load i32, ptr %6, align 4
  %14 = sext i32 %13 to i64
  %15 = mul i64 %14, 32
  %16 = add i64 40, %15
  %17 = call ptr @palloc0(i64 noundef %16)
  store ptr %17, ptr %11, align 8
  %18 = load i32, ptr %6, align 4
  %19 = load ptr, ptr %11, align 8
  %20 = getelementptr inbounds nuw %struct.ParallelSlotArray, ptr %19, i32 0, i32 0
  store i32 %18, ptr %20, align 8
  %21 = load ptr, ptr %7, align 8
  %22 = load ptr, ptr %11, align 8
  %23 = getelementptr inbounds nuw %struct.ParallelSlotArray, ptr %22, i32 0, i32 1
  store ptr %21, ptr %23, align 8
  %24 = load ptr, ptr %8, align 8
  %25 = load ptr, ptr %11, align 8
  %26 = getelementptr inbounds nuw %struct.ParallelSlotArray, ptr %25, i32 0, i32 2
  store ptr %24, ptr %26, align 8
  %27 = load i8, ptr %9, align 1, !range !4, !noundef !5
  %28 = trunc i8 %27 to i1
  %29 = load ptr, ptr %11, align 8
  %30 = getelementptr inbounds nuw %struct.ParallelSlotArray, ptr %29, i32 0, i32 3
  %31 = zext i1 %28 to i8
  store i8 %31, ptr %30, align 8
  %32 = load ptr, ptr %10, align 8
  %33 = load ptr, ptr %11, align 8
  %34 = getelementptr inbounds nuw %struct.ParallelSlotArray, ptr %33, i32 0, i32 4
  store ptr %32, ptr %34, align 8
  %35 = load ptr, ptr %11, align 8
  call void @llvm.lifetime.end.p0(i64 8, ptr %11) #8
  ret ptr %35
}