; Function Attrs: nounwind uwtable
define dso_local noundef ptr @ParallelSlotsSetup(i32 noundef %0, ptr noundef %1, ptr noundef %2, i1 noundef zeroext %3, ptr noundef %4) local_unnamed_addr #0 {
  %6 = zext i1 %3 to i8
  %7 = sext i32 %0 to i64
  %8 = shl nsw i64 %7, 5
  %9 = add nsw i64 %8, 40
  %10 = tail call ptr @palloc0(i64 noundef %9) #9
  store i32 %0, ptr %10, align 8
  %11 = getelementptr inbounds nuw i8, ptr %10, i64 8
  store ptr %1, ptr %11, align 8
  %12 = getelementptr inbounds nuw i8, ptr %10, i64 16
  store ptr %2, ptr %12, align 8
  %13 = getelementptr inbounds nuw i8, ptr %10, i64 24
  store i8 %6, ptr %13, align 8
  %14 = getelementptr inbounds nuw i8, ptr %10, i64 32
  store ptr %4, ptr %14, align 8
  ret ptr %10
}